; Function Attrs: mustprogress nounwind uwtable
define internal fastcc void @_ZN5clang15StmtVisitorBaseISt11add_pointerN12_GLOBAL__N_114AggExprEmitterEvJEE17VisitBinDivAssignEPNS_22CompoundAssignOperatorE(ptr nocapture noundef nonnull readonly align 1 dereferenceable(1) %0, ptr noundef %1) unnamed_addr #0 align 2 {
  %3 = alloca %"class.clang::CodeGen::LValue", align 8
  %4 = load i32, ptr %1, align 8
  %5 = and i32 %4, 16252928
  %switch.i.i = icmp eq i32 %5, 0
  br i1 %switch.i.i, label %6, label %9

6:                                                ; preds = %2
  call void @llvm.lifetime.start.p0(i64 136, ptr nonnull %3)
  %7 = load ptr, ptr %0, align 8
  call void @_ZN5clang7CodeGen15CodeGenFunction33EmitPointerToDataMemberBinaryExprEPKNS_14BinaryOperatorE(ptr dead_on_unwind nonnull writable sret(%"class.clang::CodeGen::LValue") align 8 %3, ptr noundef nonnull align 8 dereferenceable(6488) %7, ptr noundef nonnull %1) #15
  %8 = getelementptr inbounds nuw i8, ptr %1, i64 8
  %.sroa.0.0.copyload.i.i.i.i = load i64, ptr %8, align 8
  call fastcc void @_ZN12_GLOBAL__N_114AggExprEmitter17EmitFinalDestCopyEN5clang8QualTypeERKNS1_7CodeGen6LValueENS3_15CodeGenFunction13ExprValueKindE(ptr noundef nonnull readonly align 8 dereferenceable(81) %0, i64 %.sroa.0.0.copyload.i.i.i.i, ptr noundef nonnull align 8 dereferenceable(136) %3, i32 noundef 1)
  call void @llvm.lifetime.end.p0(i64 136, ptr nonnull %3)
  br label %_ZN5clang15StmtVisitorBaseISt11add_pointerN12_GLOBAL__N_114AggExprEmitterEvJEE27VisitCompoundAssignOperatorEPNS_22CompoundAssignOperatorE.exit

9:                                                ; preds = %2
  %10 = load ptr, ptr %0, align 8
  tail call void @_ZN5clang7CodeGen15CodeGenFunction16ErrorUnsupportedEPKNS_4StmtEPKc(ptr noundef nonnull align 8 dereferenceable(6488) %10, ptr noundef nonnull %1, ptr noundef nonnull @.str.30) #15
  br label %_ZN5clang15StmtVisitorBaseISt11add_pointerN12_GLOBAL__N_114AggExprEmitterEvJEE27VisitCompoundAssignOperatorEPNS_22CompoundAssignOperatorE.exit

_ZN5clang15StmtVisitorBaseISt11add_pointerN12_GLOBAL__N_114AggExprEmitterEvJEE27VisitCompoundAssignOperatorEPNS_22CompoundAssignOperatorE.exit: ; preds = %6, %9
  ret void
}